target datalayout = "e-m:e-p270:32:32-p271:32:32-p272:64:64-i64:64-i128:128-f80:128-n8:16:32:64-S128"
target triple = "x86_64-pc-linux-gnu"

%struct.gres_state = type { i32, i32, ptr, ptr, i32 }
%struct.gres_job_state = type { i32, ptr, i16, i16, i64, i64, i64, i64, i64, i16, i16, i64, i32, ptr, ptr, ptr, ptr, i32, i64, i32, ptr, ptr, ptr, ptr, ptr, ptr }

; Function Attrs: nounwind uwtable
define dso_local i32 @gres_select_util_job_min_cpu_node(i32 noundef %0, i32 noundef %1, ptr noundef %2) #0 {
  %4 = alloca i32, align 4
  %5 = alloca i32, align 4
  %6 = alloca i32, align 4
  %7 = alloca ptr, align 8
  %8 = alloca ptr, align 8
  %9 = alloca ptr, align 8
  %10 = alloca ptr, align 8
  %11 = alloca i32, align 4
  %12 = alloca i32, align 4
  %13 = alloca i16, align 2
  %14 = alloca i32, align 4
  %15 = alloca i64, align 8
  store i32 %0, ptr %5, align 4
  store i32 %1, ptr %6, align 4
  store ptr %2, ptr %7, align 8
  call void @llvm.lifetime.start.p0(i64 8, ptr %8) #3
  call void @llvm.lifetime.start.p0(i64 8, ptr %9) #3
  call void @llvm.lifetime.start.p0(i64 8, ptr %10) #3
  call void @llvm.lifetime.start.p0(i64 4, ptr %11) #3
  call void @llvm.lifetime.start.p0(i64 4, ptr %12) #3
  store i32 0, ptr %12, align 4
  call void @llvm.lifetime.start.p0(i64 2, ptr %13) #3
  %16 = load ptr, ptr %7, align 8
  %17 = icmp ne ptr %16, null
  br i1 %17, label %18, label %22

18:                                               ; preds = %3
  %19 = load ptr, ptr %7, align 8
  %20 = call i32 @slurm_list_count(ptr noundef %19)
  %21 = icmp eq i32 %20, 0
  br i1 %21, label %22, label %23

22:                                               ; preds = %18, %3
  store i32 0, ptr %4, align 4
  store i32 1, ptr %14, align 4
  br label %108

23:                                               ; preds = %18
  %24 = load ptr, ptr %7, align 8
  %25 = call ptr @slurm_list_iterator_create(ptr noundef %24)
  store ptr %25, ptr %8, align 8
  br label %26

26:                                               ; preds = %104, %102, %23
  %27 = load ptr, ptr %8, align 8
  %28 = call ptr @slurm_list_next(ptr noundef %27)
  store ptr %28, ptr %9, align 8
  %29 = icmp ne ptr %28, null
  br i1 %29, label %30, label %105

30:                                               ; preds = %26
  call void @llvm.lifetime.start.p0(i64 8, ptr %15) #3
  store i64 0, ptr %15, align 8
  %31 = load ptr, ptr %9, align 8
  %32 = getelementptr inbounds nuw %struct.gres_state, ptr %31, i32 0, i32 2
  %33 = load ptr, ptr %32, align 8
  store ptr %33, ptr %10, align 8
  %34 = load ptr, ptr %10, align 8
  %35 = getelementptr inbounds nuw %struct.gres_job_state, ptr %34, i32 0, i32 3
  %36 = load i16, ptr %35, align 2
  %37 = icmp ne i16 %36, 0
  br i1 %37, label %38, label %42

38:                                               ; preds = %30
  %39 = load ptr, ptr %10, align 8
  %40 = getelementptr inbounds nuw %struct.gres_job_state, ptr %39, i32 0, i32 3
  %41 = load i16, ptr %40, align 2
  store i16 %41, ptr %13, align 2
  br label %46

42:                                               ; preds = %30
  %43 = load ptr, ptr %10, align 8
  %44 = getelementptr inbounds nuw %struct.gres_job_state, ptr %43, i32 0, i32 10
  %45 = load i16, ptr %44, align 2
  store i16 %45, ptr %13, align 2
  br label %46

46:                                               ; preds = %42, %38
  %47 = load i16, ptr %13, align 2
  %48 = zext i16 %47 to i32
  %49 = icmp eq i32 %48, 0
  br i1 %49, label %50, label %51

50:                                               ; preds = %46
  store i32 2, ptr %14, align 4
  br label %102, !llvm.loop !11

51:                                               ; preds = %46
  %52 = load ptr, ptr %10, align 8
  %53 = getelementptr inbounds nuw %struct.gres_job_state, ptr %52, i32 0, i32 5
  %54 = load i64, ptr %53, align 8
  %55 = icmp ne i64 %54, 0
  br i1 %55, label %56, label %60

56:                                               ; preds = %51
  %57 = load ptr, ptr %10, align 8
  %58 = getelementptr inbounds nuw %struct.gres_job_state, ptr %57, i32 0, i32 5
  %59 = load i64, ptr %58, align 8
  store i64 %59, ptr %15, align 8
  br label %87

60:                                               ; preds = %51
  %61 = load ptr, ptr %10, align 8
  %62 = getelementptr inbounds nuw %struct.gres_job_state, ptr %61, i32 0, i32 6
  %63 = load i64, ptr %62, align 8
  %64 = icmp ne i64 %63, 0
  br i1 %64, label %65, label %72

65:                                               ; preds = %60
  %66 = load ptr, ptr %10, align 8
  %67 = getelementptr inbounds nuw %struct.gres_job_state, ptr %66, i32 0, i32 6
  %68 = load i64, ptr %67, align 8
  %69 = load i32, ptr %5, align 4
  %70 = zext i32 %69 to i64
  %71 = mul i64 %68, %70
  store i64 %71, ptr %15, align 8
  br label %86

72:                                               ; preds = %60
  %73 = load ptr, ptr %10, align 8
  %74 = getelementptr inbounds nuw %struct.gres_job_state, ptr %73, i32 0, i32 7
  %75 = load i64, ptr %74, align 8
  %76 = icmp ne i64 %75, 0
  br i1 %76, label %77, label %84

77:                                               ; preds = %72
  %78 = load ptr, ptr %10, align 8
  %79 = getelementptr inbounds nuw %struct.gres_job_state, ptr %78, i32 0, i32 7
  %80 = load i64, ptr %79, align 8
  %81 = load i32, ptr %6, align 4
  %82 = zext i32 %81 to i64
  %83 = mul i64 %80, %82
  store i64 %83, ptr %15, align 8
  br label %85

84:                                               ; preds = %72
  store i64 1, ptr %15, align 8
  br label %85

85:                                               ; preds = %84, %77
  br label %86

86:                                               ; preds = %85, %65
  br label %87

87:                                               ; preds = %86, %56
  %88 = load i16, ptr %13, align 2
  %89 = zext i16 %88 to i64
  %90 = load i64, ptr %15, align 8
  %91 = mul i64 %89, %90
  %92 = trunc i64 %91 to i32
  store i32 %92, ptr %11, align 4
  %93 = load i32, ptr %12, align 4
  %94 = load i32, ptr %11, align 4
  %95 = icmp sgt i32 %93, %94
  br i1 %95, label %96, label %98

96:                                               ; preds = %87
  %97 = load i32, ptr %12, align 4
  br label %100

98:                                               ; preds = %87
  %99 = load i32, ptr %11, align 4
  br label %100

100:                                              ; preds = %98, %96
  %101 = phi i32 [ %97, %96 ], [ %99, %98 ]
  store i32 %101, ptr %12, align 4
  store i32 0, ptr %14, align 4
  br label %102

102:                                              ; preds = %100, %50
  call void @llvm.lifetime.end.p0(i64 8, ptr %15) #3
  %103 = load i32, ptr %14, align 4
  switch i32 %103, label %110 [
    i32 0, label %104
    i32 2, label %26
  ]

104:                                              ; preds = %102
  br label %26, !llvm.loop !11

105:                                              ; preds = %26
  %106 = load ptr, ptr %8, align 8
  call void @slurm_list_iterator_destroy(ptr noundef %106)
  %107 = load i32, ptr %12, align 4
  store i32 %107, ptr %4, align 4
  store i32 1, ptr %14, align 4
  br label %108

108:                                              ; preds = %105, %22
  call void @llvm.lifetime.end.p0(i64 2, ptr %13) #3
  call void @llvm.lifetime.end.p0(i64 4, ptr %12) #3
  call void @llvm.lifetime.end.p0(i64 4, ptr %11) #3
  call void @llvm.lifetime.end.p0(i64 8, ptr %10) #3
  call void @llvm.lifetime.end.p0(i64 8, ptr %9) #3
  call void @llvm.lifetime.end.p0(i64 8, ptr %8) #3
  %109 = load i32, ptr %4, align 4
  ret i32 %109

110:                                              ; preds = %102
  unreachable
}