; Function Attrs: nounwind uwtable
define dso_local range(i32 0, -2147483648) i32 @gres_select_util_job_min_cpu_node(i32 noundef %0, i32 noundef %1, ptr noundef %2) local_unnamed_addr #0 {
  %.not = icmp eq ptr %2, null
  br i1 %.not, label %40, label %4

4:                                                ; preds = %3
  %5 = tail call i32 @slurm_list_count(ptr noundef nonnull %2) #4
  %6 = icmp eq i32 %5, 0
  br i1 %6, label %40, label %7

7:                                                ; preds = %4
  %8 = tail call ptr @slurm_list_iterator_create(ptr noundef nonnull %2) #4
  %9 = tail call ptr @slurm_list_next(ptr noundef %8) #4
  %.not3441 = icmp eq ptr %9, null
  br i1 %.not3441, label %._crit_edge, label %.lr.ph

.lr.ph:                                           ; preds = %7
  %10 = zext i32 %0 to i64
  %11 = zext i32 %1 to i64
  br label %12

12:                                               ; preds = %.lr.ph, %38
  %13 = phi ptr [ %9, %.lr.ph ], [ %39, %38 ]
  %.02642 = phi i32 [ 0, %.lr.ph ], [ %.1, %38 ]
  %14 = getelementptr inbounds nuw i8, ptr %13, i64 8
  %15 = load ptr, ptr %14, align 8
  %16 = getelementptr inbounds nuw i8, ptr %15, i64 18
  %17 = load i16, ptr %16, align 2
  %.not35 = icmp eq i16 %17, 0
  br i1 %.not35, label %18, label %.thread

18:                                               ; preds = %12
  %19 = getelementptr inbounds nuw i8, ptr %15, i64 66
  %20 = load i16, ptr %19, align 2
  %21 = icmp eq i16 %20, 0
  br i1 %21, label %38, label %.thread, !llvm.loop !11

.thread:                                          ; preds = %12, %18
  %.02540 = phi i16 [ %20, %18 ], [ %17, %12 ]
  %22 = getelementptr inbounds nuw i8, ptr %15, i64 32
  %23 = load i64, ptr %22, align 8
  %.not36 = icmp eq i64 %23, 0
  br i1 %.not36, label %24, label %33

24:                                               ; preds = %.thread
  %25 = getelementptr inbounds nuw i8, ptr %15, i64 40
  %26 = load i64, ptr %25, align 8
  %.not37 = icmp eq i64 %26, 0
  br i1 %.not37, label %29, label %27

27:                                               ; preds = %24
  %28 = mul i64 %26, %10
  br label %33

29:                                               ; preds = %24
  %30 = getelementptr inbounds nuw i8, ptr %15, i64 48
  %31 = load i64, ptr %30, align 8
  %.not38 = icmp eq i64 %31, 0
  %32 = mul i64 %31, %11
  %spec.select = select i1 %.not38, i64 1, i64 %32
  br label %33

33:                                               ; preds = %29, %.thread, %27
  %.0 = phi i64 [ %28, %27 ], [ %23, %.thread ], [ %spec.select, %29 ]
  %34 = zext i16 %.02540 to i64
  %35 = mul i64 %.0, %34
  %36 = trunc i64 %35 to i32
  %37 = tail call i32 @llvm.smax.i32(i32 %.02642, i32 %36)
  br label %38

38:                                               ; preds = %18, %33
  %.1 = phi i32 [ %37, %33 ], [ %.02642, %18 ]
  %39 = tail call ptr @slurm_list_next(ptr noundef %8) #4
  %.not34 = icmp eq ptr %39, null
  br i1 %.not34, label %._crit_edge, label %12

._crit_edge:                                      ; preds = %38, %7
  %.026.lcssa = phi i32 [ 0, %7 ], [ %.1, %38 ]
  tail call void @slurm_list_iterator_destroy(ptr noundef %8) #4
  br label %40

40:                                               ; preds = %3, %4, %._crit_edge
  %.027 = phi i32 [ %.026.lcssa, %._crit_edge ], [ 0, %4 ], [ 0, %3 ]
  ret i32 %.027
}